target datalayout = "e-m:e-p270:32:32-p271:32:32-p272:64:64-i64:64-i128:128-f80:128-n8:16:32:64-S128"
target triple = "x86_64-pc-linux-gnu"

%struct.uv_udp_s = type { ptr, ptr, i32, ptr, %struct.uv__queue, %union.anon, ptr, i32, i64, i64, ptr, ptr, %struct.uv__io_s, %struct.uv__queue, %struct.uv__queue }
%union.anon = type { [4 x ptr] }
%struct.uv__io_s = type { ptr, %struct.uv__queue, %struct.uv__queue, i32, i32, i32 }
%struct.uv__queue = type { ptr, ptr }

; Function Attrs: nounwind uwtable
define internal i32 @uv__setsockopt(ptr noundef %0, i32 noundef %1, i32 noundef %2, ptr noundef %3, i32 noundef %4) #0 {
  %6 = alloca i32, align 4
  %7 = alloca ptr, align 8
  %8 = alloca i32, align 4
  %9 = alloca i32, align 4
  %10 = alloca ptr, align 8
  %11 = alloca i32, align 4
  %12 = alloca i32, align 4
  %13 = alloca i32, align 4
  store ptr %0, ptr %7, align 8
  store i32 %1, ptr %8, align 4
  store i32 %2, ptr %9, align 4
  store ptr %3, ptr %10, align 8
  store i32 %4, ptr %11, align 4
  call void @llvm.lifetime.start.p0(i64 4, ptr %12) #10
  %14 = load ptr, ptr %7, align 8
  %15 = getelementptr inbounds nuw %struct.uv_udp_s, ptr %14, i32 0, i32 7
  %16 = load i32, ptr %15, align 8
  %17 = and i32 %16, 4194304
  %18 = icmp ne i32 %17, 0
  br i1 %18, label %19, label %28

19:                                               ; preds = %5
  %20 = load ptr, ptr %7, align 8
  %21 = getelementptr inbounds nuw %struct.uv_udp_s, ptr %20, i32 0, i32 12
  %22 = getelementptr inbounds nuw %struct.uv__io_s, ptr %21, i32 0, i32 5
  %23 = load i32, ptr %22, align 8
  %24 = load i32, ptr %9, align 4
  %25 = load ptr, ptr %10, align 8
  %26 = load i32, ptr %11, align 4
  %27 = call i32 @setsockopt(i32 noundef %23, i32 noundef 41, i32 noundef %24, ptr noundef %25, i32 noundef %26) #10
  store i32 %27, ptr %12, align 4
  br label %37

28:                                               ; preds = %5
  %29 = load ptr, ptr %7, align 8
  %30 = getelementptr inbounds nuw %struct.uv_udp_s, ptr %29, i32 0, i32 12
  %31 = getelementptr inbounds nuw %struct.uv__io_s, ptr %30, i32 0, i32 5
  %32 = load i32, ptr %31, align 8
  %33 = load i32, ptr %8, align 4
  %34 = load ptr, ptr %10, align 8
  %35 = load i32, ptr %11, align 4
  %36 = call i32 @setsockopt(i32 noundef %32, i32 noundef 0, i32 noundef %33, ptr noundef %34, i32 noundef %35) #10
  store i32 %36, ptr %12, align 4
  br label %37

37:                                               ; preds = %28, %19
  %38 = load i32, ptr %12, align 4
  %39 = icmp ne i32 %38, 0
  br i1 %39, label %40, label %44

40:                                               ; preds = %37
  %41 = call ptr @__errno_location() #11
  %42 = load i32, ptr %41, align 4
  %43 = sub nsw i32 0, %42
  store i32 %43, ptr %6, align 4
  store i32 1, ptr %13, align 4
  br label %45

44:                                               ; preds = %37
  store i32 0, ptr %6, align 4
  store i32 1, ptr %13, align 4
  br label %45

45:                                               ; preds = %44, %40
  call void @llvm.lifetime.end.p0(i64 4, ptr %12) #10
  %46 = load i32, ptr %6, align 4
  ret i32 %46
}

; Function Attrs: nounwind uwtable
define internal i32 @uv__setsockopt_maybe_char(ptr noundef %0, i32 noundef %1, i32 noundef %2, i32 noundef %3) #0 {
  %5 = alloca i32, align 4
  %6 = alloca ptr, align 8
  %7 = alloca i32, align 4
  %8 = alloca i32, align 4
  %9 = alloca i32, align 4
  %10 = alloca i32, align 4
  %11 = alloca i32, align 4
  store ptr %0, ptr %6, align 8
  store i32 %1, ptr %7, align 4
  store i32 %2, ptr %8, align 4
  store i32 %3, ptr %9, align 4
  call void @llvm.lifetime.start.p0(i64 4, ptr %10) #10
  %12 = load i32, ptr %9, align 4
  store i32 %12, ptr %10, align 4
  %13 = load i32, ptr %9, align 4
  %14 = icmp slt i32 %13, 0
  br i1 %14, label %18, label %15

15:                                               ; preds = %4
  %16 = load i32, ptr %9, align 4
  %17 = icmp sgt i32 %16, 255
  br i1 %17, label %18, label %19

18:                                               ; preds = %15, %4
  store i32 -22, ptr %5, align 4
  store i32 1, ptr %11, align 4
  br label %24

19:                                               ; preds = %15
  %20 = load ptr, ptr %6, align 8
  %21 = load i32, ptr %7, align 4
  %22 = load i32, ptr %8, align 4
  %23 = call i32 @uv__setsockopt(ptr noundef %20, i32 noundef %21, i32 noundef %22, ptr noundef %10, i32 noundef 4)
  store i32 %23, ptr %5, align 4
  store i32 1, ptr %11, align 4
  br label %24

24:                                               ; preds = %19, %18
  call void @llvm.lifetime.end.p0(i64 4, ptr %10) #10
  %25 = load i32, ptr %5, align 4
  ret i32 %25
}

; Function Attrs: nounwind uwtable
define dso_local i32 @uv_udp_set_multicast_ttl(ptr noundef %0, i32 noundef %1) #0 {
  %3 = alloca ptr, align 8
  %4 = alloca i32, align 4
  store ptr %0, ptr %3, align 8
  store i32 %1, ptr %4, align 4
  %5 = load ptr, ptr %3, align 8
  %6 = load i32, ptr %4, align 4
  %7 = call i32 @uv__setsockopt_maybe_char(ptr noundef %5, i32 noundef 33, i32 noundef 18, i32 noundef %6)
  ret i32 %7
}